Certificate:
    Data:
        Version: 3 (0x2)
        Serial Number: 4667 (0x123b)
    Signature Algorithm: sha256WithRSAEncryption
        Issuer: C=US, ST=Arizona, O=U-HAUL INERNATIONAL INC, OU=WebTeam, CN=linux.amerco.org/emailAddress=domains@uhaul.com
        Validity
            Not Before: Jun 11 21:18:59 2018 GMT
            Not After : Jun 10 21:18:59 2023 GMT
        Subject: C=US, ST=Arizona, O=U-HAUL INTERNATIONAL, INC, OU=Applications, CN=example-producer
        Subject Public Key Info:
            Public Key Algorithm: rsaEncryption
                Public-Key: (2048 bit)
                Modulus:
                    00:bd:e0:21:ed:3c:86:8c:42:1a:80:07:f7:60:0b:
                    4d:69:8f:38:36:bf:bc:94:cf:1d:8d:52:db:6b:a0:
                    34:d1:e0:78:ff:42:f1:46:69:29:a3:6d:fe:46:5a:
                    66:cc:c4:53:be:30:52:86:83:b3:6f:4e:b0:72:e6:
                    46:bd:ca:c5:3c:f3:1a:e8:d7:b4:39:b3:07:a0:c4:
                    a2:cf:f5:ed:54:6e:5b:74:fc:1a:d3:ea:2c:45:66:
                    7c:ad:76:fc:1c:79:01:21:eb:63:f3:a0:2e:0f:03:
                    f1:a8:78:bb:b5:12:bc:72:ee:0d:b0:fa:26:76:d4:
                    fa:a5:30:72:ba:74:36:a7:40:67:8d:ef:48:2d:99:
                    d9:d5:97:87:9f:87:7c:3a:30:7a:b7:a3:11:38:8e:
                    60:04:09:3f:93:1e:2f:84:3d:26:5c:7a:b5:70:22:
                    1f:8d:7b:33:5e:9d:f3:18:da:5f:1f:62:93:2d:bb:
                    28:ee:cd:bc:bf:65:a1:c8:83:1b:bc:0e:d4:98:fa:
                    ee:6a:09:75:40:6d:43:a7:b4:74:4d:7e:23:c3:0f:
                    64:76:67:c2:2d:da:e3:6b:fb:da:27:26:a1:e6:a7:
                    0b:54:47:6b:bc:9d:aa:69:4c:18:2c:6b:5a:76:31:
                    e0:76:13:f1:9b:8e:99:77:21:3e:52:aa:f1:c7:ad:
                    fd:35
                Exponent: 65537 (0x10001)
        X509v3 extensions:
            X509v3 Basic Constraints: 
                CA:FALSE
            Netscape Comment: 
                OpenSSL Generated Certificate
            X509v3 Subject Key Identifier: 
                0B:D3:26:38:0A:49:60:2A:29:B5:CA:A2:78:7A:39:2D:CB:8D:98:3B
            X509v3 Authority Key Identifier: 
                keyid:DF:A9:F1:83:FF:22:7D:7C:77:41:9D:D4:2A:8D:A1:FF:9A:56:0C:6F

    Signature Algorithm: sha256WithRSAEncryption
         91:b8:5b:c5:7e:53:ff:1f:d1:21:1f:49:36:25:2a:6b:72:06:
         21:4e:e1:a4:7a:c2:b7:6b:5e:69:58:1c:4f:a9:2b:4c:05:a0:
         4f:82:3e:56:16:16:88:26:af:8f:1d:88:3f:5a:d8:ca:49:90:
         5a:82:50:92:46:b8:7d:81:0f:51:68:da:00:61:59:9a:52:a6:
         0d:c1:d2:33:e6:fa:48:83:a2:65:2f:2e:58:70:ab:14:ae:f1:
         69:e5:ed:4f:89:88:39:b3:3e:63:de:4a:c8:37:2f:fa:05:eb:
         4d:2a:33:83:16:52:33:5f:de:9f:87:de:c1:54:17:47:70:cd:
         9f:20
-----BEGIN CERTIFICATE-----
MIIDfDCCAuWgAwIBAgICEjswDQYJKoZIhvcNAQELBQAwgZAxCzAJBgNVBAYTAlVT
MRAwDgYDVQQIEwdBcml6b25hMSAwHgYDVQQKExdVLUhBVUwgSU5FUk5BVElPTkFM
IElOQzEQMA4GA1UECxMHV2ViVGVhbTEZMBcGA1UEAxMQbGludXguYW1lcmNvLm9y
ZzEgMB4GCSqGSIb3DQEJARYRZG9tYWluc0B1aGF1bC5jb20wHhcNMTgwNjExMjEx
ODU5WhcNMjMwNjEwMjExODU5WjB1MQswCQYDVQQGEwJVUzEQMA4GA1UECAwHQXJp
em9uYTEiMCAGA1UECgwZVS1IQVVMIElOVEVSTkFUSU9OQUwsIElOQzEVMBMGA1UE
CwwMQXBwbGljYXRpb25zMRkwFwYDVQQDDBBleGFtcGxlLXByb2R1Y2VyMIIBIjAN
BgkqhkiG9w0BAQEFAAOCAQ8AMIIBCgKCAQEAveAh7TyGjEIagAf3YAtNaY84Nr+8
lM8djVLba6A00eB4/0LxRmkpo23+RlpmzMRTvjBShoOzb06wcuZGvcrFPPMa6Ne0
ObMHoMSiz/XtVG5bdPwa0+osRWZ8rXb8HHkBIetj86AuDwPxqHi7tRK8cu4NsPom
dtT6pTByunQ2p0Bnje9ILZnZ1ZeHn4d8OjB6t6MROI5gBAk/kx4vhD0mXHq1cCIf
jXszXp3zGNpfH2KTLbso7s28v2WhyIMbvA7UmPruagl1QG1Dp7R0TX4jww9kdmfC
Ldrja/vaJyah5qcLVEdrvJ2qaUwYLGtadjHgdhPxm46ZdyE+Uqrxx639NQIDAQAB
o3sweTAJBgNVHRMEAjAAMCwGCWCGSAGG+EIBDQQfFh1PcGVuU1NMIEdlbmVyYXRl
ZCBDZXJ0aWZpY2F0ZTAdBgNVHQ4EFgQUC9MmOApJYCoptcqieHo5LcuNmDswHwYD
VR0jBBgwFoAU36nxg/8ifXx3QZ3UKo2h/5pWDG8wDQYJKoZIhvcNAQELBQADgYEA
kbhbxX5T/x/RIR9JNiUqa3IGIU7hpHrCt2teaVgcT6krTAWgT4I+VhYWiCavjx2I
P1rYykmQWoJQkka4fYEPUWjaAGFZmlKmDcHSM+b6SIOiZS8uWHCrFK7xaeXtT4mI
ObM+Y95KyDcv+gXrTSozgxZSM1/en4fewVQXR3DNnyA=
-----END CERTIFICATE-----
